target datalayout = "e-m:e-p270:32:32-p271:32:32-p272:64:64-i64:64-i128:128-f80:128-n8:16:32:64-S128"
target triple = "x86_64-unknown-linux-gnu"

%struct.QEMUIOVector = type { ptr, i32, %union.anon.14 }
%union.anon.14 = type { %struct.anon.15 }
%struct.anon.15 = type { i32, %struct.iovec }
%struct.iovec = type { ptr, i64 }

; Function Attrs: nounwind sspstrong uwtable
define internal i32 @bdrv_co_pwrite(ptr noundef %child, i64 noundef %offset, i64 noundef %bytes, ptr noundef %buf, i32 noundef %flags) #0 {
entry:
  %child.addr = alloca ptr, align 8
  %offset.addr = alloca i64, align 8
  %bytes.addr = alloca i64, align 8
  %buf.addr = alloca ptr, align 8
  %flags.addr = alloca i32, align 4
  %qiov = alloca %struct.QEMUIOVector, align 8
  store ptr %child, ptr %child.addr, align 8
  store i64 %offset, ptr %offset.addr, align 8
  store i64 %bytes, ptr %bytes.addr, align 8
  store ptr %buf, ptr %buf.addr, align 8
  store i32 %flags, ptr %flags.addr, align 4
  %iov = getelementptr inbounds %struct.QEMUIOVector, ptr %qiov, i32 0, i32 0
  %0 = getelementptr inbounds %struct.QEMUIOVector, ptr %qiov, i32 0, i32 2
  %local_iov = getelementptr inbounds %struct.anon.15, ptr %0, i32 0, i32 1
  store ptr %local_iov, ptr %iov, align 8
  %niov = getelementptr inbounds %struct.QEMUIOVector, ptr %qiov, i32 0, i32 1
  store i32 1, ptr %niov, align 8
  %1 = getelementptr inbounds %struct.QEMUIOVector, ptr %qiov, i32 0, i32 2
  %nalloc = getelementptr inbounds %struct.anon.15, ptr %1, i32 0, i32 0
  store i32 -1, ptr %nalloc, align 8
  %local_iov1 = getelementptr inbounds %struct.anon.15, ptr %1, i32 0, i32 1
  %iov_base = getelementptr inbounds %struct.iovec, ptr %local_iov1, i32 0, i32 0
  %2 = load ptr, ptr %buf.addr, align 8
  store ptr %2, ptr %iov_base, align 8
  %iov_len = getelementptr inbounds %struct.iovec, ptr %local_iov1, i32 0, i32 1
  %3 = load i64, ptr %bytes.addr, align 8
  store i64 %3, ptr %iov_len, align 8
  br label %do.body

do.body:                                          ; preds = %entry
  br label %do.end

do.end:                                           ; preds = %do.body
  call void @assert_bdrv_graph_readable()
  %4 = load ptr, ptr %child.addr, align 8
  %5 = load i64, ptr %offset.addr, align 8
  %6 = load i64, ptr %bytes.addr, align 8
  %7 = load i32, ptr %flags.addr, align 4
  %call = call i32 @bdrv_co_pwritev(ptr noundef %4, i64 noundef %5, i64 noundef %6, ptr noundef %qiov, i32 noundef %7)
  ret i32 %call
}