; Function Attrs: nounwind sspstrong uwtable
define internal i32 @bdrv_co_pwrite(ptr noundef %child, i64 noundef %offset, i64 noundef %bytes, ptr noundef %buf, i32 noundef %flags) #0 {
entry:
  %qiov = alloca %struct.QEMUIOVector, align 8
  %0 = getelementptr inbounds nuw i8, ptr %qiov, i64 16
  %local_iov = getelementptr inbounds nuw i8, ptr %qiov, i64 24
  store ptr %local_iov, ptr %qiov, align 8
  %niov = getelementptr inbounds nuw i8, ptr %qiov, i64 8
  store i32 1, ptr %niov, align 8
  store i32 -1, ptr %0, align 8
  store ptr %buf, ptr %local_iov, align 8
  %iov_len = getelementptr inbounds nuw i8, ptr %qiov, i64 32
  store i64 %bytes, ptr %iov_len, align 8
  call void @assert_bdrv_graph_readable() #14
  %call = call i32 @bdrv_co_pwritev(ptr noundef %child, i64 noundef %offset, i64 noundef %bytes, ptr noundef nonnull %qiov, i32 noundef %flags) #14
  ret i32 %call
}